; Function Attrs: nounwind uwtable
define dso_local range(i64 0, 2) i64 @pg_index_column_has_property(ptr noundef captures(none) %0) local_unnamed_addr #0 {
  %2 = getelementptr inbounds nuw i8, ptr %0, i64 32
  %3 = load i64, ptr %2, align 8
  %4 = getelementptr inbounds nuw i8, ptr %0, i64 48
  %5 = load i64, ptr %4, align 8
  %6 = trunc i64 %5 to i32
  %7 = getelementptr inbounds nuw i8, ptr %0, i64 64
  %8 = load i64, ptr %7, align 8
  %9 = inttoptr i64 %8 to ptr
  %10 = tail call ptr @pg_detoast_datum_packed(ptr noundef %9) #3
  %11 = tail call ptr @text_to_cstring(ptr noundef %10) #3
  %12 = icmp slt i32 %6, 1
  br i1 %12, label %13, label %15

13:                                               ; preds = %1
  %14 = getelementptr inbounds nuw i8, ptr %0, i64 28
  store i8 1, ptr %14, align 4
  br label %18

15:                                               ; preds = %1
  %16 = trunc i64 %3 to i32
  %17 = tail call fastcc i64 @indexam_property(ptr noundef nonnull %0, ptr noundef %11, i32 noundef 0, i32 noundef %16, i32 noundef %6)
  br label %18

18:                                               ; preds = %15, %13
  %.0 = phi i64 [ 0, %13 ], [ %17, %15 ]
  ret i64 %.0
}